target datalayout = "e-m:e-p270:32:32-p271:32:32-p272:64:64-i64:64-i128:128-f80:128-n8:16:32:64-S128"
target triple = "x86_64-pc-linux-gnu"

%struct.Curl_llist_node = type { ptr, ptr, ptr, ptr }
%struct.ip_quadruple = type { [46 x i8], [46 x i8], i32, i32 }
%struct.easy_pollset = type { [5 x i32], i32, [5 x i8] }
%struct.ssl_primary_config = type { ptr, ptr, ptr, ptr, ptr, ptr, ptr, ptr, ptr, ptr, ptr, ptr, ptr, ptr, i8, i32, i8, i8 }
%struct.curltime = type { i64, i32 }
%struct.Curl_llist = type { ptr, ptr, ptr, i64 }
%struct.dynbuf = type { ptr, i64, i64, i64 }
%struct.SASL = type { ptr, i32, ptr, i16, i16, i16, i8 }
%struct.Curl_easy = type { i32, i64, i64, ptr, %struct.Curl_llist_node, %struct.Curl_llist_node, i32, i32, %struct.Curl_message, %struct.easy_pollset, %struct.Names, ptr, ptr, ptr, ptr, %struct.SingleRequest, %struct.UserDefined, ptr, ptr, ptr, %struct.Progress, %struct.UrlState, ptr, %struct.PureInfo, %struct.curl_tlssessioninfo }
%struct.Curl_message = type { %struct.Curl_llist_node, %struct.CURLMsg }
%struct.CURLMsg = type { i32, ptr, %union.anon.1 }
%union.anon.1 = type { ptr }
%struct.Names = type { ptr, i32 }
%struct.SingleRequest = type <{ i64, i64, i64, i64, %struct.curltime, i32, i32, i32, i32, i64, i32, i32, i8, i8, [2 x i8], i32, ptr, ptr, %struct.bufq, i64, i64, ptr, ptr, %union.anon.2, ptr, i8, i32, [3 x i8] }>
%struct.bufq = type { ptr, ptr, ptr, ptr, i64, i64, i64, i32 }
%union.anon.2 = type { ptr }
%struct.UserDefined = type <{ ptr, ptr, ptr, ptr, ptr, ptr, i64, i64, i64, ptr, ptr, i64, ptr, ptr, ptr, ptr, ptr, ptr, ptr, ptr, ptr, ptr, ptr, ptr, ptr, ptr, ptr, ptr, ptr, ptr, ptr, ptr, ptr, ptr, ptr, i64, i64, i64, i64, i64, i64, i64, i64, i64, ptr, ptr, %struct.curl_mimepart, ptr, ptr, ptr, i64, %struct.ssl_config_data, %struct.ssl_config_data, ptr, i16, i8, i8, %struct.ssl_general_config, i32, i32, i32, [4 x i8], ptr, ptr, i64, i32, i8, i8, i8, i8, ptr, ptr, ptr, i32, [4 x i8], [74 x ptr], [8 x ptr], i32, i32, i32, [4 x i8], ptr, i32, [4 x i8], ptr, ptr, ptr, ptr, ptr, i32, i32, i32, i32, i32, i32, i32, i32, i64, ptr, ptr, i64, ptr, i64, ptr, ptr, ptr, ptr, i32, i16, i16, i16, i8, i8, i8, i8, i8, i8, i8, i8, i64, [6 x i8] }>
%struct.curl_mimepart = type { ptr, ptr, i32, i32, ptr, ptr, ptr, ptr, ptr, ptr, ptr, ptr, ptr, ptr, ptr, i64, %struct.mime_state, ptr, %struct.mime_encoder_state, i64 }
%struct.mime_state = type { i32, ptr, i64 }
%struct.mime_encoder_state = type { i64, i64, i64, [256 x i8] }
%struct.ssl_config_data = type { %struct.ssl_primary_config, i64, ptr, ptr, ptr, ptr, ptr, ptr, ptr, i16 }
%struct.ssl_general_config = type { i32 }
%struct.Progress = type { i64, %struct.pgrs_dir, %struct.pgrs_dir, i64, i64, i32, i32, i64, i64, i64, i64, i64, i64, i64, i64, i64, %struct.curltime, %struct.curltime, %struct.curltime, %struct.curltime, %struct.curltime, [6 x i64], [6 x %struct.curltime], i32, i8 }
%struct.pgrs_dir = type { i64, i64, i64, %struct.pgrs_measure }
%struct.pgrs_measure = type { %struct.curltime, i64 }
%struct.UrlState = type { %struct.curltime, i64, i64, %struct.dynbuf, ptr, i64, ptr, i32, i32, i32, ptr, i32, i64, i32, ptr, %struct.digestdata, %struct.digestdata, %struct.auth, %struct.auth, %struct.Curl_async, ptr, i8, %struct.curltime, %struct.Curl_tree, %struct.Curl_llist, [15 x %struct.time_node], ptr, ptr, i64, i64, i64, i64, [32 x i8], i64, ptr, ptr, ptr, %struct.urlpieces, ptr, ptr, ptr, ptr, ptr, i64, %struct.dynbuf, %struct.Curl_llist, [2 x %struct.curl_header], ptr, i32, ptr, ptr, %struct.store_netrc, %struct.dynamically_allocated_data, i8, i8, i8, i8, i32 }
%struct.digestdata = type { ptr, ptr, ptr, ptr, ptr, ptr, i32, i8, i8 }
%struct.auth = type { i64, i64, i64, i8 }
%struct.Curl_async = type { ptr, ptr, ptr, ptr, i32, i32, i8 }
%struct.Curl_tree = type { ptr, ptr, ptr, ptr, %struct.curltime, ptr }
%struct.time_node = type { %struct.Curl_llist_node, %struct.curltime, i32 }
%struct.urlpieces = type { ptr, ptr, ptr, ptr, ptr, ptr, ptr, ptr }
%struct.curl_header = type { ptr, ptr, i64, i64, i32, ptr }
%struct.store_netrc = type { %struct.dynbuf, ptr, i8 }
%struct.dynamically_allocated_data = type { ptr, ptr, ptr, ptr, ptr, ptr, ptr, ptr, ptr, ptr, ptr, ptr, ptr, ptr }
%struct.PureInfo = type { i32, i32, i32, i64, i64, i64, i64, i64, i64, i64, ptr, ptr, i64, i32, %struct.ip_quadruple, i32, ptr, i32, %struct.curl_certinfo, i32, i8 }
%struct.curl_certinfo = type { i32, ptr }
%struct.curl_tlssessioninfo = type { i32, ptr }
%struct.SASLproto = type { ptr, ptr, ptr, ptr, ptr, i64, i32, i32, i16, i16 }

; Function Attrs: nounwind uwtable
define hidden void @Curl_sasl_init(ptr noundef %0, ptr noundef %1, ptr noundef %2) #0 {
  %4 = alloca ptr, align 8
  %5 = alloca ptr, align 8
  %6 = alloca ptr, align 8
  %7 = alloca i64, align 8
  %8 = alloca i16, align 2
  store ptr %0, ptr %4, align 8, !tbaa !25
  store ptr %1, ptr %5, align 8, !tbaa !30
  store ptr %2, ptr %6, align 8, !tbaa !32
  call void @llvm.lifetime.start.p0(i64 8, ptr %7) #4
  %9 = load ptr, ptr %5, align 8, !tbaa !30
  %10 = getelementptr inbounds nuw %struct.Curl_easy, ptr %9, i32 0, i32 16
  %11 = getelementptr inbounds nuw %struct.UserDefined, ptr %10, i32 0, i32 6
  %12 = load i64, ptr %11, align 8, !tbaa !33
  store i64 %12, ptr %7, align 8, !tbaa !12
  %13 = load ptr, ptr %6, align 8, !tbaa !32
  %14 = load ptr, ptr %4, align 8, !tbaa !25
  %15 = getelementptr inbounds nuw %struct.SASL, ptr %14, i32 0, i32 0
  store ptr %13, ptr %15, align 8, !tbaa !97
  %16 = load ptr, ptr %4, align 8, !tbaa !25
  %17 = getelementptr inbounds nuw %struct.SASL, ptr %16, i32 0, i32 1
  store i32 0, ptr %17, align 8, !tbaa !98
  %18 = load ptr, ptr %4, align 8, !tbaa !25
  %19 = getelementptr inbounds nuw %struct.SASL, ptr %18, i32 0, i32 2
  store ptr null, ptr %19, align 8, !tbaa !99
  %20 = load ptr, ptr %4, align 8, !tbaa !25
  %21 = getelementptr inbounds nuw %struct.SASL, ptr %20, i32 0, i32 3
  store i16 0, ptr %21, align 8, !tbaa !100
  %22 = load ptr, ptr %6, align 8, !tbaa !32
  %23 = getelementptr inbounds nuw %struct.SASLproto, ptr %22, i32 0, i32 8
  %24 = load i16, ptr %23, align 8, !tbaa !101
  %25 = load ptr, ptr %4, align 8, !tbaa !25
  %26 = getelementptr inbounds nuw %struct.SASL, ptr %25, i32 0, i32 4
  store i16 %24, ptr %26, align 2, !tbaa !27
  %27 = load ptr, ptr %4, align 8, !tbaa !25
  %28 = getelementptr inbounds nuw %struct.SASL, ptr %27, i32 0, i32 5
  store i16 0, ptr %28, align 4, !tbaa !103
  %29 = load ptr, ptr %4, align 8, !tbaa !25
  %30 = getelementptr inbounds nuw %struct.SASL, ptr %29, i32 0, i32 6
  %31 = load i8, ptr %30, align 2
  %32 = and i8 %31, -2
  %33 = or i8 %32, 1
  store i8 %33, ptr %30, align 2
  %34 = load ptr, ptr %4, align 8, !tbaa !25
  %35 = getelementptr inbounds nuw %struct.SASL, ptr %34, i32 0, i32 6
  %36 = load i8, ptr %35, align 2
  %37 = and i8 %36, -3
  %38 = or i8 %37, 0
  store i8 %38, ptr %35, align 2
  %39 = load ptr, ptr %4, align 8, !tbaa !25
  %40 = getelementptr inbounds nuw %struct.SASL, ptr %39, i32 0, i32 6
  %41 = load i8, ptr %40, align 2
  %42 = and i8 %41, -5
  %43 = or i8 %42, 0
  store i8 %43, ptr %40, align 2
  %44 = load i64, ptr %7, align 8, !tbaa !12
  %45 = icmp ne i64 %44, 1
  br i1 %45, label %46, label %100

46:                                               ; preds = %3
  call void @llvm.lifetime.start.p0(i64 2, ptr %8) #4
  store i16 0, ptr %8, align 2, !tbaa !8
  %47 = load i64, ptr %7, align 8, !tbaa !12
  %48 = and i64 %47, 1
  %49 = icmp ne i64 %48, 0
  br i1 %49, label %50, label %55

50:                                               ; preds = %46
  %51 = load i16, ptr %8, align 2, !tbaa !8
  %52 = zext i16 %51 to i32
  %53 = or i32 %52, 3
  %54 = trunc i32 %53 to i16
  store i16 %54, ptr %8, align 2, !tbaa !8
  br label %55

55:                                               ; preds = %50, %46
  %56 = load i64, ptr %7, align 8, !tbaa !12
  %57 = and i64 %56, 2
  %58 = icmp ne i64 %57, 0
  br i1 %58, label %59, label %64

59:                                               ; preds = %55
  %60 = load i16, ptr %8, align 2, !tbaa !8
  %61 = zext i16 %60 to i32
  %62 = or i32 %61, 8
  %63 = trunc i32 %62 to i16
  store i16 %63, ptr %8, align 2, !tbaa !8
  br label %64

64:                                               ; preds = %59, %55
  %65 = load i64, ptr %7, align 8, !tbaa !12
  %66 = and i64 %65, 8
  %67 = icmp ne i64 %66, 0
  br i1 %67, label %68, label %73

68:                                               ; preds = %64
  %69 = load i16, ptr %8, align 2, !tbaa !8
  %70 = zext i16 %69 to i32
  %71 = or i32 %70, 64
  %72 = trunc i32 %71 to i16
  store i16 %72, ptr %8, align 2, !tbaa !8
  br label %73

73:                                               ; preds = %68, %64
  %74 = load i64, ptr %7, align 8, !tbaa !12
  %75 = and i64 %74, 64
  %76 = icmp ne i64 %75, 0
  br i1 %76, label %77, label %82

77:                                               ; preds = %73
  %78 = load i16, ptr %8, align 2, !tbaa !8
  %79 = zext i16 %78 to i32
  %80 = or i32 %79, 384
  %81 = trunc i32 %80 to i16
  store i16 %81, ptr %8, align 2, !tbaa !8
  br label %82

82:                                               ; preds = %77, %73
  %83 = load i64, ptr %7, align 8, !tbaa !12
  %84 = and i64 %83, 4
  %85 = icmp ne i64 %84, 0
  br i1 %85, label %86, label %91

86:                                               ; preds = %82
  %87 = load i16, ptr %8, align 2, !tbaa !8
  %88 = zext i16 %87 to i32
  %89 = or i32 %88, 16
  %90 = trunc i32 %89 to i16
  store i16 %90, ptr %8, align 2, !tbaa !8
  br label %91

91:                                               ; preds = %86, %82
  %92 = load i16, ptr %8, align 2, !tbaa !8
  %93 = zext i16 %92 to i32
  %94 = icmp ne i32 %93, 0
  br i1 %94, label %95, label %99

95:                                               ; preds = %91
  %96 = load i16, ptr %8, align 2, !tbaa !8
  %97 = load ptr, ptr %4, align 8, !tbaa !25
  %98 = getelementptr inbounds nuw %struct.SASL, ptr %97, i32 0, i32 4
  store i16 %96, ptr %98, align 2, !tbaa !27
  br label %99

99:                                               ; preds = %95, %91
  call void @llvm.lifetime.end.p0(i64 2, ptr %8) #4
  br label %100

100:                                              ; preds = %99, %3
  call void @llvm.lifetime.end.p0(i64 8, ptr %7) #4
  ret void
}