; Function Attrs: mustprogress nofree norecurse nosync nounwind willreturn memory(argmem: readwrite) uwtable
define hidden void @Curl_sasl_init(ptr noundef captures(none) initializes((0, 12), (16, 30)) %0, ptr noundef readonly captures(none) %1, ptr noundef %2) local_unnamed_addr #5 {
  %4 = getelementptr inbounds nuw i8, ptr %1, i64 512
  %5 = load i64, ptr %4, align 8, !tbaa !21
  store ptr %2, ptr %0, align 8, !tbaa !86
  %6 = getelementptr inbounds nuw i8, ptr %0, i64 8
  store i32 0, ptr %6, align 8, !tbaa !87
  %7 = getelementptr inbounds nuw i8, ptr %0, i64 16
  store ptr null, ptr %7, align 8, !tbaa !88
  %8 = getelementptr inbounds nuw i8, ptr %0, i64 24
  store i16 0, ptr %8, align 8, !tbaa !89
  %9 = getelementptr inbounds nuw i8, ptr %2, i64 56
  %10 = load i16, ptr %9, align 8, !tbaa !90
  %11 = getelementptr inbounds nuw i8, ptr %0, i64 26
  store i16 %10, ptr %11, align 2, !tbaa !17
  %12 = getelementptr inbounds nuw i8, ptr %0, i64 28
  store i16 0, ptr %12, align 4, !tbaa !92
  %13 = getelementptr inbounds nuw i8, ptr %0, i64 30
  %14 = load i8, ptr %13, align 2
  %15 = and i8 %14, -8
  %16 = or disjoint i8 %15, 1
  store i8 %16, ptr %13, align 2
  %.not = icmp eq i64 %5, 1
  br i1 %.not, label %28, label %17

17:                                               ; preds = %3
  %18 = and i64 %5, 1
  %.not26 = icmp eq i64 %18, 0
  %spec.select = select i1 %.not26, i16 0, i16 3
  %19 = trunc i64 %5 to i16
  %20 = shl i16 %19, 2
  %21 = and i16 %20, 8
  %.1 = or disjoint i16 %spec.select, %21
  %22 = shl i16 %19, 3
  %23 = and i16 %22, 64
  %.2 = or disjoint i16 %.1, %23
  %24 = and i64 %5, 64
  %.not29 = icmp eq i64 %24, 0
  %25 = or disjoint i16 %.2, 384
  %.3 = select i1 %.not29, i16 %.2, i16 %25
  %26 = and i16 %20, 16
  %.4 = or disjoint i16 %.3, %26
  %.not31 = icmp eq i16 %.4, 0
  br i1 %.not31, label %28, label %27

27:                                               ; preds = %17
  store i16 %.4, ptr %11, align 2, !tbaa !17
  br label %28

28:                                               ; preds = %17, %27, %3
  ret void
}